; Function Attrs: mustprogress uwtable
define dso_local void @_ZN30cmGlobalUnixMakefileGenerator314EnableLanguageERKSt6vectorINSt7__cxx1112basic_stringIcSt11char_traitsIcESaIcEEESaIS6_EEP10cmMakefileb(ptr noundef nonnull align 8 dereferenceable(2120) %0, ptr noundef nonnull align 8 dereferenceable(24) %1, ptr noundef %2, i1 noundef zeroext %3) unnamed_addr #3 align 2 {
  tail call void @_ZN17cmGlobalGenerator14EnableLanguageERKSt6vectorINSt7__cxx1112basic_stringIcSt11char_traitsIcESaIcEEESaIS6_EEP10cmMakefileb(ptr noundef nonnull align 8 dereferenceable(1778) %0, ptr noundef nonnull align 8 dereferenceable(24) %1, ptr noundef %2, i1 noundef zeroext %3)
  %5 = load ptr, ptr %1, align 8
  %6 = getelementptr inbounds i8, ptr %1, i64 8
  %7 = load ptr, ptr %6, align 8
  %.not13 = icmp eq ptr %5, %7
  br i1 %.not13, label %._crit_edge, label %.lr.ph

.lr.ph:                                           ; preds = %4, %11
  %.sroa.010.014 = phi ptr [ %12, %11 ], [ %5, %4 ]
  %8 = tail call noundef i32 @_ZNKSt7__cxx1112basic_stringIcSt11char_traitsIcESaIcEE7compareEPKc(ptr noundef nonnull align 8 dereferenceable(32) %.sroa.010.014, ptr noundef nonnull @.str.4) #20
  %9 = icmp eq i32 %8, 0
  br i1 %9, label %11, label %10

10:                                               ; preds = %.lr.ph
  tail call void @_ZNK17cmGlobalGenerator23ResolveLanguageCompilerERKNSt7__cxx1112basic_stringIcSt11char_traitsIcESaIcEEEP10cmMakefileb(ptr noundef nonnull align 8 dereferenceable(1778) %0, ptr noundef nonnull align 8 dereferenceable(32) %.sroa.010.014, ptr noundef %2, i1 noundef zeroext %3)
  br label %11

11:                                               ; preds = %.lr.ph, %10
  %12 = getelementptr inbounds i8, ptr %.sroa.010.014, i64 32
  %.not = icmp eq ptr %12, %7
  br i1 %.not, label %._crit_edge, label %.lr.ph

._crit_edge:                                      ; preds = %11, %4
  ret void
}